; ModuleID = '38/1122.c'
source_filename = "38/1122.c"
target datalayout = "e-m:e-p270:32:32-p271:32:32-p272:64:64-i64:64-f80:128-n8:16:32:64-S128"
target triple = "x86_64-pc-linux-gnu"

@.str = private unnamed_addr constant [3 x i8] c"%d\00", align 1
@.str.1 = private unnamed_addr constant [4 x i8] c"%lf\00", align 1
@.str.2 = private unnamed_addr constant [6 x i8] c"%.5f\0A\00", align 1

; Function Attrs: noinline nounwind uwtable
define dso_local void @count() #0 {
  %1 = alloca i32, align 4
  %2 = alloca i32, align 4
  %3 = alloca [100 x double*], align 16
  %4 = alloca double, align 8
  %5 = alloca double, align 8
  store double 0.000000e+00, double* %4, align 8
  store double 0.000000e+00, double* %5, align 8
  %6 = call i32 (i8*, ...) @__isoc99_scanf(i8* getelementptr inbounds ([3 x i8], [3 x i8]* @.str, i64 0, i64 0), i32* %1)
  store i32 0, i32* %2, align 4
  br label %7

7:                                                ; preds = %29, %0
  %8 = load i32, i32* %2, align 4
  %9 = load i32, i32* %1, align 4
  %10 = icmp slt i32 %8, %9
  br i1 %10, label %11, label %32

11:                                               ; preds = %7
  %12 = call noalias i8* @malloc(i64 8) #3
  %13 = bitcast i8* %12 to double*
  %14 = load i32, i32* %2, align 4
  %15 = sext i32 %14 to i64
  %16 = getelementptr inbounds [100 x double*], [100 x double*]* %3, i64 0, i64 %15
  store double* %13, double** %16, align 8
  %17 = load i32, i32* %2, align 4
  %18 = sext i32 %17 to i64
  %19 = getelementptr inbounds [100 x double*], [100 x double*]* %3, i64 0, i64 %18
  %20 = load double*, double** %19, align 8
  %21 = call i32 (i8*, ...) @__isoc99_scanf(i8* getelementptr inbounds ([4 x i8], [4 x i8]* @.str.1, i64 0, i64 0), double* %20)
  %22 = load double, double* %4, align 8
  %23 = load i32, i32* %2, align 4
  %24 = sext i32 %23 to i64
  %25 = getelementptr inbounds [100 x double*], [100 x double*]* %3, i64 0, i64 %24
  %26 = load double*, double** %25, align 8
  %27 = load double, double* %26, align 8
  %28 = fadd double %22, %27
  store double %28, double* %4, align 8
  br label %29

29:                                               ; preds = %11
  %30 = load i32, i32* %2, align 4
  %31 = add nsw i32 %30, 1
  store i32 %31, i32* %2, align 4
  br label %7

32:                                               ; preds = %7
  %33 = load double, double* %4, align 8
  %34 = load i32, i32* %1, align 4
  %35 = sitofp i32 %34 to double
  %36 = fdiv double %33, %35
  store double %36, double* %4, align 8
  store i32 0, i32* %2, align 4
  br label %37

37:                                               ; preds = %59, %32
  %38 = load i32, i32* %2, align 4
  %39 = load i32, i32* %1, align 4
  %40 = icmp slt i32 %38, %39
  br i1 %40, label %41, label %62

41:                                               ; preds = %37
  %42 = load double, double* %5, align 8
  %43 = load i32, i32* %2, align 4
  %44 = sext i32 %43 to i64
  %45 = getelementptr inbounds [100 x double*], [100 x double*]* %3, i64 0, i64 %44
  %46 = load double*, double** %45, align 8
  %47 = load double, double* %46, align 8
  %48 = load double, double* %4, align 8
  %49 = fsub double %47, %48
  %50 = load i32, i32* %2, align 4
  %51 = sext i32 %50 to i64
  %52 = getelementptr inbounds [100 x double*], [100 x double*]* %3, i64 0, i64 %51
  %53 = load double*, double** %52, align 8
  %54 = load double, double* %53, align 8
  %55 = load double, double* %4, align 8
  %56 = fsub double %54, %55
  %57 = fmul double %49, %56
  %58 = fadd double %42, %57
  store double %58, double* %5, align 8
  br label %59

59:                                               ; preds = %41
  %60 = load i32, i32* %2, align 4
  %61 = add nsw i32 %60, 1
  store i32 %61, i32* %2, align 4
  br label %37

62:                                               ; preds = %37
  %63 = load double, double* %5, align 8
  %64 = load i32, i32* %1, align 4
  %65 = sitofp i32 %64 to double
  %66 = fdiv double %63, %65
  store double %66, double* %5, align 8
  %67 = load double, double* %5, align 8
  %68 = call double @sqrt(double %67) #3
  %69 = call i32 (i8*, ...) @printf(i8* getelementptr inbounds ([6 x i8], [6 x i8]* @.str.2, i64 0, i64 0), double %68)
  ret void
}

declare dso_local i32 @__isoc99_scanf(i8*, ...) #1

; Function Attrs: nounwind
declare dso_local noalias i8* @malloc(i64) #2

declare dso_local i32 @printf(i8*, ...) #1

; Function Attrs: nounwind
declare dso_local double @sqrt(double) #2

; Function Attrs: noinline nounwind uwtable
define dso_local void @main() #0 {
  %1 = alloca i32, align 4
  %2 = alloca i32, align 4
  %3 = call i32 (i8*, ...) @__isoc99_scanf(i8* getelementptr inbounds ([3 x i8], [3 x i8]* @.str, i64 0, i64 0), i32* %2)
  store i32 0, i32* %1, align 4
  br label %4

4:                                                ; preds = %9, %0
  %5 = load i32, i32* %1, align 4
  %6 = load i32, i32* %2, align 4
  %7 = icmp slt i32 %5, %6
  br i1 %7, label %8, label %12

8:                                                ; preds = %4
  call void @count()
  br label %9

9:                                                ; preds = %8
  %10 = load i32, i32* %1, align 4
  %11 = add nsw i32 %10, 1
  store i32 %11, i32* %1, align 4
  br label %4

12:                                               ; preds = %4
  ret void
}


!llvm.module.flags = !{!0}
!llvm.ident = !{!1}

!0 = !{i32 1, !"wchar_size", i32 4}
!1 = !{!"clang version 10.0.0-4ubuntu1 "}
